target datalayout = "e-m:e-p270:32:32-p271:32:32-p272:64:64-i64:64-i128:128-f80:128-n8:16:32:64-S128"
target triple = "x86_64-pc-linux-gnu"

@.str.1642 = private unnamed_addr constant [19 x i8] c"RSRQ < -19.5dB (0)\00", align 1
@.str.1643 = private unnamed_addr constant [18 x i8] c"RSRQ >= -3dB (34)\00", align 1
@.str.1644 = private unnamed_addr constant [29 x i8] c"%.1fdB <= RSRQ < %.1fdB (%u)\00", align 1

; Function Attrs: null_pointer_is_valid sspstrong uwtable
define internal void @ulp_RSRQ_Range_fmt(ptr noundef %0, i32 noundef %1) #0 {
  %3 = alloca ptr, align 8
  %4 = alloca i32, align 4
  store ptr %0, ptr %3, align 8
  store i32 %1, ptr %4, align 4
  %5 = load i32, ptr %4, align 4
  %6 = icmp eq i32 %5, 0
  br i1 %6, label %7, label %12

7:                                                ; preds = %2
  %8 = load ptr, ptr %3, align 8
  %9 = load ptr, ptr %3, align 8
  %10 = call i64 @llvm.objectsize.i64.p0(ptr %9, i1 false, i1 true, i1 true)
  %11 = call i32 (ptr, i64, i32, i64, ptr, ...) @__snprintf_chk(ptr noundef %8, i64 noundef 240, i32 noundef 2, i64 noundef %10, ptr noundef @.str.1642)
  br label %37

12:                                               ; preds = %2
  %13 = load i32, ptr %4, align 4
  %14 = icmp eq i32 %13, 64
  br i1 %14, label %15, label %20

15:                                               ; preds = %12
  %16 = load ptr, ptr %3, align 8
  %17 = load ptr, ptr %3, align 8
  %18 = call i64 @llvm.objectsize.i64.p0(ptr %17, i1 false, i1 true, i1 true)
  %19 = call i32 (ptr, i64, i32, i64, ptr, ...) @__snprintf_chk(ptr noundef %16, i64 noundef 240, i32 noundef 2, i64 noundef %18, ptr noundef @.str.1643)
  br label %36

20:                                               ; preds = %12
  %21 = load ptr, ptr %3, align 8
  %22 = load ptr, ptr %3, align 8
  %23 = call i64 @llvm.objectsize.i64.p0(ptr %22, i1 false, i1 true, i1 true)
  %24 = load i32, ptr %4, align 4
  %25 = uitofp i32 %24 to float
  %26 = fdiv float %25, 2.000000e+00
  %27 = fadd float -2.000000e+01, %26
  %28 = fpext float %27 to double
  %29 = load i32, ptr %4, align 4
  %30 = uitofp i32 %29 to float
  %31 = fdiv float %30, 2.000000e+00
  %32 = fpext float %31 to double
  %33 = fadd double -1.950000e+01, %32
  %34 = load i32, ptr %4, align 4
  %35 = call i32 (ptr, i64, i32, i64, ptr, ...) @__snprintf_chk(ptr noundef %21, i64 noundef 240, i32 noundef 2, i64 noundef %23, ptr noundef @.str.1644, double noundef %28, double noundef %33, i32 noundef %34)
  br label %36

36:                                               ; preds = %20, %15
  br label %37

37:                                               ; preds = %36, %7
  ret void
}