; Function Attrs: nofree null_pointer_is_valid sspstrong uwtable
define internal void @ulp_RSRQ_Range_fmt(ptr noundef %0, i32 noundef %1) #1 {
  switch i32 %1, label %7 [
    i32 0, label %3
    i32 64, label %5
  ]

3:                                                ; preds = %2
  %4 = tail call i32 (ptr, i64, i32, i64, ptr, ...) @__snprintf_chk(ptr noundef %0, i64 noundef 240, i32 noundef 2, i64 noundef -1, ptr noundef nonnull @.str.1642)
  br label %15

5:                                                ; preds = %2
  %6 = tail call i32 (ptr, i64, i32, i64, ptr, ...) @__snprintf_chk(ptr noundef %0, i64 noundef 240, i32 noundef 2, i64 noundef -1, ptr noundef nonnull @.str.1643)
  br label %15

7:                                                ; preds = %2
  %8 = uitofp i32 %1 to float
  %9 = fmul float %8, 5.000000e-01
  %10 = fadd float %9, -2.000000e+01
  %11 = fpext float %10 to double
  %12 = fpext float %9 to double
  %13 = fadd double %12, -1.950000e+01
  %14 = tail call i32 (ptr, i64, i32, i64, ptr, ...) @__snprintf_chk(ptr noundef %0, i64 noundef 240, i32 noundef 2, i64 noundef -1, ptr noundef nonnull @.str.1644, double noundef %11, double noundef %13, i32 noundef %1)
  br label %15

15:                                               ; preds = %5, %7, %3
  ret void
}